target datalayout = "e-m:e-p270:32:32-p271:32:32-p272:64:64-i64:64-i128:128-f80:128-n8:16:32:64-S128"
target triple = "x86_64-pc-linux-gnu"

@hf_ieee802154_mlme_ie_data = internal global i32 0, align 4
@hf_ieee802154_tsch_channel_hopping = internal global i32 0, align 4
@hf_ieee802154_tsch_hopping_sequence_id = internal global i32 0, align 4
@ett_ieee802154_mlme_payload = internal global i32 0, align 4

; Function Attrs: null_pointer_is_valid sspstrong uwtable
define internal i32 @dissect_802154_channel_hopping(ptr noundef %0, ptr noundef %1, ptr noundef %2, ptr noundef %3) #0 {
  %5 = alloca ptr, align 8
  %6 = alloca ptr, align 8
  %7 = alloca ptr, align 8
  %8 = alloca ptr, align 8
  %9 = alloca ptr, align 8
  store ptr %0, ptr %5, align 8
  store ptr %1, ptr %6, align 8
  store ptr %2, ptr %7, align 8
  store ptr %3, ptr %8, align 8
  call void @llvm.lifetime.start.p0(i64 8, ptr %9) #17
  %10 = load ptr, ptr %5, align 8
  %11 = load ptr, ptr %7, align 8
  %12 = load i32, ptr @hf_ieee802154_tsch_channel_hopping, align 4
  %13 = load i32, ptr @ett_ieee802154_mlme_payload, align 4
  %14 = call ptr @ieee802154_create_psie_tree(ptr noundef %10, ptr noundef %11, i32 noundef %12, i32 noundef %13)
  store ptr %14, ptr %9, align 8
  %15 = load ptr, ptr %9, align 8
  %16 = load i32, ptr @hf_ieee802154_tsch_hopping_sequence_id, align 4
  %17 = load ptr, ptr %5, align 8
  %18 = call ptr @proto_tree_add_item(ptr noundef %15, i32 noundef %16, ptr noundef %17, i32 noundef 2, i32 noundef 1, i32 noundef -2147483648)
  %19 = load ptr, ptr %5, align 8
  %20 = call i32 @tvb_reported_length_remaining(ptr noundef %19, i32 noundef 3)
  %21 = icmp sgt i32 %20, 1
  br i1 %21, label %22, label %29

22:                                               ; preds = %4
  %23 = load ptr, ptr %9, align 8
  %24 = load i32, ptr @hf_ieee802154_mlme_ie_data, align 4
  %25 = load ptr, ptr %5, align 8
  %26 = load ptr, ptr %5, align 8
  %27 = call i32 @tvb_reported_length_remaining(ptr noundef %26, i32 noundef 3)
  %28 = call ptr @proto_tree_add_item(ptr noundef %23, i32 noundef %24, ptr noundef %25, i32 noundef 3, i32 noundef %27, i32 noundef 0)
  br label %29

29:                                               ; preds = %22, %4
  %30 = load ptr, ptr %5, align 8
  %31 = call i32 @tvb_reported_length(ptr noundef %30)
  call void @llvm.lifetime.end.p0(i64 8, ptr %9) #17
  ret i32 %31
}