; Function Attrs: null_pointer_is_valid sspstrong uwtable
define internal i32 @dissect_802154_channel_hopping(ptr noundef %0, ptr readnone captures(none) %1, ptr noundef %2, ptr readnone captures(none) %3) #0 {
  %5 = load i32, ptr @hf_ieee802154_tsch_channel_hopping, align 4
  %6 = load i32, ptr @ett_ieee802154_mlme_payload, align 4
  %7 = tail call fastcc ptr @ieee802154_create_psie_tree(ptr noundef %0, ptr noundef %2, i32 noundef %5, i32 noundef %6)
  %8 = load i32, ptr @hf_ieee802154_tsch_hopping_sequence_id, align 4
  %9 = tail call ptr @proto_tree_add_item(ptr noundef %7, i32 noundef %8, ptr noundef %0, i32 noundef 2, i32 noundef 1, i32 noundef -2147483648)
  %10 = tail call i32 @tvb_reported_length_remaining(ptr noundef %0, i32 noundef 3)
  %11 = icmp sgt i32 %10, 1
  br i1 %11, label %12, label %16

12:                                               ; preds = %4
  %13 = load i32, ptr @hf_ieee802154_mlme_ie_data, align 4
  %14 = tail call i32 @tvb_reported_length_remaining(ptr noundef %0, i32 noundef 3)
  %15 = tail call ptr @proto_tree_add_item(ptr noundef %7, i32 noundef %13, ptr noundef %0, i32 noundef 3, i32 noundef %14, i32 noundef 0)
  br label %16

16:                                               ; preds = %12, %4
  %17 = tail call i32 @tvb_reported_length(ptr noundef %0)
  ret i32 %17
}